; Function Attrs: mustprogress nofree norecurse nosync nounwind willreturn memory(read, argmem: readwrite, inaccessiblemem: none) uwtable
define range(i32 -1094995529, 1) i32 @ff_tdecode_header(ptr noundef captures(none) %0, ptr noundef writeonly captures(none) %1, ptr noundef writeonly captures(none) %2) local_unnamed_addr #2 {
  %4 = getelementptr inbounds nuw i8, ptr %0, i64 8
  %5 = load ptr, ptr %4, align 8, !tbaa !10
  %6 = load ptr, ptr %0, align 8, !tbaa !14
  %7 = ptrtoint ptr %5 to i64
  %8 = ptrtoint ptr %6 to i64
  %9 = sub i64 %7, %8
  %10 = trunc i64 %9 to i32
  %11 = icmp slt i32 %10, 8
  br i1 %11, label %ff_tget_short.exit.thread, label %12

12:                                               ; preds = %3
  %13 = getelementptr inbounds nuw i8, ptr %6, i64 2
  store ptr %13, ptr %0, align 8, !tbaa !15
  %14 = load i16, ptr %6, align 1, !tbaa !16
  %15 = zext i16 %14 to i32
  store i32 %15, ptr %1, align 4, !tbaa !26
  switch i16 %14, label %ff_tget_short.exit.thread [
    i16 18761, label %16
    i16 19789, label %21
  ]

16:                                               ; preds = %12
  store i32 1, ptr %1, align 4, !tbaa !26
  %17 = ptrtoint ptr %13 to i64
  %18 = sub i64 %7, %17
  %19 = icmp slt i64 %18, 2
  br i1 %19, label %20, label %ff_tget_short.exit.thread21

20:                                               ; preds = %16
  store ptr %5, ptr %0, align 8, !tbaa !14
  br label %ff_tget_short.exit.thread

21:                                               ; preds = %12
  store i32 0, ptr %1, align 4, !tbaa !26
  %22 = ptrtoint ptr %13 to i64
  %23 = sub i64 %7, %22
  %24 = icmp slt i64 %23, 2
  br i1 %24, label %25, label %ff_tget_short.exit

25:                                               ; preds = %21
  store ptr %5, ptr %0, align 8, !tbaa !14
  br label %ff_tget_short.exit.thread

ff_tget_short.exit:                               ; preds = %21
  %26 = getelementptr inbounds nuw i8, ptr %6, i64 4
  store ptr %26, ptr %0, align 8, !tbaa !15
  %27 = load i16, ptr %13, align 1, !tbaa !16
  %.not = icmp eq i16 %27, 10752
  br i1 %.not, label %38, label %ff_tget_short.exit.thread

ff_tget_short.exit.thread21:                      ; preds = %16
  %28 = getelementptr inbounds nuw i8, ptr %6, i64 4
  store ptr %28, ptr %0, align 8, !tbaa !15
  %29 = load i16, ptr %13, align 1, !tbaa !16
  %.not24 = icmp eq i16 %29, 42
  br i1 %.not24, label %30, label %ff_tget_short.exit.thread

30:                                               ; preds = %ff_tget_short.exit.thread21
  %31 = ptrtoint ptr %28 to i64
  %32 = sub i64 %7, %31
  %33 = icmp slt i64 %32, 4
  br i1 %33, label %34, label %35

34:                                               ; preds = %30
  store ptr %5, ptr %0, align 8, !tbaa !14
  br label %ff_tget_long.exit

35:                                               ; preds = %30
  %36 = getelementptr inbounds nuw i8, ptr %6, i64 8
  store ptr %36, ptr %0, align 8, !tbaa !15
  %37 = load i32, ptr %28, align 1, !tbaa !16
  br label %ff_tget_long.exit

38:                                               ; preds = %ff_tget_short.exit
  %39 = ptrtoint ptr %26 to i64
  %40 = sub i64 %7, %39
  %41 = icmp slt i64 %40, 4
  br i1 %41, label %42, label %43

42:                                               ; preds = %38
  store ptr %5, ptr %0, align 8, !tbaa !14
  br label %ff_tget_long.exit

43:                                               ; preds = %38
  %44 = getelementptr inbounds nuw i8, ptr %6, i64 8
  store ptr %44, ptr %0, align 8, !tbaa !15
  %45 = load i32, ptr %26, align 1, !tbaa !16
  %46 = tail call i32 @llvm.bswap.i32(i32 %45)
  br label %ff_tget_long.exit

ff_tget_long.exit:                                ; preds = %34, %35, %42, %43
  %47 = phi i32 [ 0, %34 ], [ %37, %35 ], [ 0, %42 ], [ %46, %43 ]
  store i32 %47, ptr %2, align 4, !tbaa !26
  br label %ff_tget_short.exit.thread

ff_tget_short.exit.thread:                        ; preds = %12, %25, %20, %ff_tget_short.exit.thread21, %ff_tget_short.exit, %3, %ff_tget_long.exit
  %.0 = phi i32 [ 0, %ff_tget_long.exit ], [ -1094995529, %3 ], [ -1094995529, %ff_tget_short.exit ], [ -1094995529, %ff_tget_short.exit.thread21 ], [ -1094995529, %20 ], [ -1094995529, %25 ], [ -1094995529, %12 ]
  ret i32 %.0
}